(dp0
(I1
I0
I0
I0
I1
I0
I0
I0
tp1
F0.973
s(I0
I0
I0
I0
I1
I0
I0
I0
tp2
F0.826
s(I1
I0
I1
I1
I1
I0
I1
I0
tp3
F0.337
s(I0
I1
I1
I1
I0
I1
I0
I1
tp4
F0.779
s(I0
I1
I1
I0
I0
I1
I1
I0
tp5
I0
s(I0
I1
I0
I1
I1
I0
I1
I1
tp6
F0.469
s(I1
I1
I1
I1
I1
I1
I0
I1
tp7
I0
s(I1
I0
I0
I1
I1
I0
I1
I1
tp8
F0.537
s(I1
I1
I0
I1
I1
I0
I0
I0
tp9
F0.85
s(I0
I0
I1
I0
I1
I0
I0
I1
tp10
F0.805
s(I1
I0
I0
I0
I0
I0
I1
I0
tp11
F0.717
s(I0
I1
I0
I0
I0
I1
I1
I0
tp12
F0.457
s(I0
I1
I0
I1
I0
I1
I0
I1
tp13
F0.75
s(I1
I1
I0
I1
I1
I1
I1
I1
tp14
F0.456
s(I1
I0
I1
I1
I0
I0
I0
I0
tp15
F0.576
s(I1
I1
I1
I0
I1
I0
I1
I1
tp16
F0.612
s(I1
I0
I1
I0
I0
I0
I0
I1
tp17
F0.825
s(I0
I0
I1
I0
I0
I1
I0
I0
tp18
F0.722
s(I1
I1
I1
I0
I1
I1
I0
I0
tp19
F0.639
s(I1
I1
I0
I1
I0
I0
I1
I0
tp20
F0.491
s(I0
I0
I0
I1
I0
I1
I1
I0
tp21
I0
s(I0
I0
I0
I0
I0
I1
I0
I1
tp22
F0.829
s(I1
I0
I0
I1
I0
I0
I1
I0
tp23
F0.522
s(I1
I0
I1
I0
I1
I1
I0
I0
tp24
F0.675
s(I0
I1
I0
I1
I1
I1
I0
I1
tp25
F0.74
s(I1
I1
I1
I0
I0
I0
I0
I1
tp26
F0.783
s(I1
I0
I1
I0
I1
I0
I1
I1
tp27
F0.446
s(I1
I1
I1
I1
I0
I0
I0
I0
tp28
F0.622
s(I1
I0
I0
I1
I1
I1
I1
I1
tp29
F0.475
s(I0
I1
I1
I1
I1
I1
I1
I1
tp30
I0
s(I0
I0
I1
I1
I0
I1
I1
I0
tp31
I0
s(I1
I1
I0
I0
I0
I0
I1
I0
tp32
F0.543
s(I0
I1
I0
I0
I1
I0
I1
I1
tp33
I0
s(I1
I0
I0
I1
I1
I0
I0
I0
tp34
F0.735
s(I1
I1
I1
I1
I0
I1
I1
I0
tp35
I0
s(I0
I0
I0
I0
I1
I1
I0
I1
tp36
F0.928
s(I1
I0
I1
I1
I1
I1
I0
I1
tp37
F0.67
s(I0
I1
I0
I0
I1
I1
I0
I0
tp38
I0
s(I1
I1
I1
I1
I0
I1
I1
I1
tp39
F0.446
s(I0
I1
I1
I1
I0
I0
I1
I0
tp40
F0.481
s(I1
I1
I1
I1
I1
I0
I1
I0
tp41
F0.344
s(I0
I0
I1
I1
I1
I1
I1
I0
tp42
I0
s(I0
I0
I1
I0
I1
I1
I1
I0
tp43
I0
s(I1
I1
I0
I0
I1
I0
I0
I0
tp44
F0.75
s(I0
I1
I0
I0
I0
I0
I0
I1
tp45
F0.762
s(I0
I1
I0
I1
I0
I0
I0
I0
tp46
F0.73
s(I0
I0
I0
I1
I1
I1
I0
I0
tp47
I0
s(I1
I0
I1
I1
I0
I1
I0
I1
tp48
F0.701
s(I1
I0
I1
I0
I0
I1
I1
I0
tp49
I0
s(I0
I1
I1
I0
I0
I0
I1
I0
tp50
F0.559
s(I1
I0
I0
I1
I0
I1
I1
I1
tp51
I0
s(I1
I1
I1
I0
I1
I0
I0
I1
tp52
F0.707
s(I0
I0
I0
I1
I0
I0
I0
I1
tp53
F0.672
s(I1
I0
I0
I0
I0
I1
I1
I0
tp54
I0
s(I1
I0
I0
I1
I0
I1
I0
I1
tp55
F0.798
s(I0
I0
I0
I0
I0
I0
I0
I0
tp56
F1.0
s(I1
I1
I1
I0
I0
I1
I1
I1
tp57
F0.629
s(I0
I1
I0
I1
I1
I0
I1
I0
tp58
F0.471
s(I0
I0
I0
I0
I0
I1
I1
I1
tp59
F0.605
s(I0
I1
I1
I0
I1
I0
I0
I0
tp60
F0.772
s(I1
I1
I1
I0
I0
I1
I0
I0
tp61
I0
s(I0
I0
I1
I1
I0
I0
I1
I1
tp62
F0.414
s(I1
I1
I1
I0
I0
I0
I1
I1
tp63
F0.637
s(I1
I1
I0
I0
I0
I1
I0
I1
tp64
F0.841
s(I0
I0
I1
I1
I0
I1
I0
I0
tp65
F0.738
s(I0
I0
I0
I0
I1
I0
I1
I0
tp66
F0.616
s(I1
I0
I0
I1
I1
I1
I0
I1
tp67
F0.72
s(I1
I1
I0
I0
I1
I0
I1
I1
tp68
F0.638
s(I1
I0
I1
I1
I1
I0
I0
I0
tp69
I0
s(I0
I1
I0
I0
I1
I0
I0
I1
tp70
F0.777
s(I0
I1
I1
I1
I0
I1
I1
I1
tp71
I0
s(I0
I0
I1
I1
I1
I0
I0
I1
tp72
F0.702
s(I1
I0
I1
I1
I1
I1
I1
I1
tp73
I0
s(I1
I0
I1
I1
I0
I1
I1
I1
tp74
I0
s(I1
I0
I0
I0
I1
I0
I1
I1
tp75
F0.603
s(I1
I1
I0
I0
I1
I1
I0
I1
tp76
F0.824
s(I0
I1
I0
I0
I0
I1
I0
I0
tp77
I0
s(I1
I0
I0
I0
I1
I1
I0
I0
tp78
F0.706
s(I0
I0
I0
I1
I1
I0
I0
I1
tp79
F0.655
s(I1
I0
I1
I1
I0
I0
I1
I0
tp80
F0.274
s(I0
I1
I0
I0
I0
I0
I1
I1
tp81
F0.567
s(I0
I1
I1
I0
I0
I1
I0
I1
tp82
F0.812
s(I0
I1
I1
I1
I1
I0
I0
I1
tp83
F0.669
s(I1
I1
I1
I1
I1
I1
I1
I0
tp84
I0
s(I1
I1
I1
I1
I1
I1
I1
I1
tp85
I0
s(I1
I1
I1
I0
I1
I1
I1
I0
tp86
I0
s(I0
I0
I1
I0
I1
I0
I1
I0
tp87
F0.524
s(I1
I0
I0
I0
I0
I0
I0
I1
tp88
F0.896
s(I0
I0
I0
I1
I0
I1
I0
I0
tp89
F0.726
s(I1
I0
I0
I1
I0
I0
I0
I0
tp90
F0.83
s(I1
I1
I0
I1
I1
I1
I0
I0
tp91
F0.727
s(I0
I0
I0
I1
I0
I0
I1
I1
tp92
F0.451
s(I1
I0
I1
I0
I0
I0
I1
I0
tp93
F0.516
s(I0
I0
I1
I0
I0
I1
I1
I1
tp94
F0.659
s(I0
I1
I1
I0
I1
I1
I0
I1
tp95
F0.827
s(I1
I0
I1
I1
I1
I0
I1
I1
tp96
F0.545
s(I1
I0
I1
I0
I1
I1
I1
I1
tp97
F0.479
s(I1
I1
I0
I1
I0
I0
I0
I1
tp98
F0.7
s(I0
I0
I1
I0
I0
I0
I0
I0
tp99
F0.698
s(I1
I1
I0
I0
I0
I0
I0
I0
tp100
F0.83
s(I0
I0
I1
I1
I0
I0
I0
I1
tp101
F0.657
s(I1
I0
I0
I1
I1
I0
I1
I0
tp102
F0.643
s(I0
I1
I0
I1
I1
I1
I1
I0
tp103
I0
s(I1
I1
I0
I0
I0
I1
I1
I1
tp104
I0
s(I0
I1
I0
I0
I1
I1
I1
I0
tp105
I0
s(I1
I0
I1
I0
I1
I0
I0
I0
tp106
F0.636
s(I1
I1
I1
I1
I1
I0
I0
I0
tp107
F0.605
s(I0
I1
I1
I1
I1
I1
I0
I0
tp108
I0
s(I0
I0
I1
I1
I1
I1
I0
I0
tp109
I0
s(I1
I1
I1
I1
I0
I1
I0
I0
tp110
I0
s(I1
I1
I0
I0
I1
I0
I1
I0
tp111
I0
s(I0
I0
I0
I0
I1
I1
I1
I0
tp112
I0
s(I1
I0
I0
I0
I1
I1
I1
I1
tp113
F0.615
s(I0
I1
I0
I1
I1
I1
I1
I1
tp114
F0.514
s(I0
I0
I0
I1
I1
I1
I1
I0
tp115
I0
s(I1
I0
I0
I0
I1
I0
I0
I1
tp116
F0.845
s(I0
I1
I1
I1
I0
I0
I0
I1
tp117
F0.73
s(I0
I1
I1
I0
I0
I0
I0
I0
tp118
F0.748
s(I0
I1
I1
I1
I1
I0
I0
I0
tp119
F0.681
s(I0
I0
I1
I0
I1
I1
I0
I1
tp120
F0.847
s(I0
I1
I1
I0
I0
I1
I1
I1
tp121
F0.618
s(I1
I0
I0
I0
I0
I1
I0
I0
tp122
F0.747
s(I0
I1
I0
I1
I0
I0
I1
I1
tp123
F0.478
s(I1
I1
I0
I1
I1
I0
I0
I1
tp124
F0.722
s(I1
I0
I0
I0
I0
I0
I1
I1
tp125
F0.738
s(I1
I0
I1
I0
I0
I1
I0
I1
tp126
F0.743
s(I0
I1
I0
I1
I0
I1
I0
I0
tp127
I0
s(I1
I1
I1
I1
I0
I0
I1
I1
tp128
F0.443
s(I0
I1
I1
I0
I1
I0
I1
I0
tp129
F0.442
s(I1
I1
I1
I0
I1
I0
I1
I0
tp130
F0.56
s(I0
I0
I0
I1
I1
I0
I1
I0
tp131
I0
s(I1
I1
I0
I1
I0
I1
I0
I0
tp132
I0
s(I0
I0
I1
I0
I0
I1
I0
I1
tp133
F0.866
s(I0
I0
I0
I0
I0
I0
I1
I1
tp134
F0.945
s(I0
I1
I0
I1
I1
I0
I0
I1
tp135
I0
s(I1
I1
I0
I1
I0
I0
I1
I1
tp136
F0.617
s(I0
I0
I0
I0
I0
I1
I0
I0
tp137
I0
s(I0
I1
I0
I1
I0
I1
I1
I0
tp138
I0
s(I0
I0
I1
I0
I0
I0
I1
I1
tp139
F0.414
s(I1
I0
I1
I0
I1
I1
I0
I1
tp140
F0.928
s(I1
I0
I0
I1
I0
I1
I1
I0
tp141
I0
s(I1
I1
I0
I1
I0
I1
I1
I0
tp142
I0
s(I0
I1
I0
I0
I1
I1
I1
I1
tp143
F0.614
s(I1
I1
I1
I0
I0
I0
I0
I0
tp144
F0.783
s(I1
I1
I1
I1
I0
I0
I0
I1
tp145
F0.686
s(I0
I0
I0
I0
I1
I0
I0
I1
tp146
I0
s(I1
I0
I0
I1
I1
I1
I1
I0
tp147
I0
s(I1
I0
I0
I0
I1
I1
I1
I0
tp148
I0
s(I0
I1
I0
I0
I1
I0
I1
I0
tp149
F0.633
s(I0
I1
I1
I1
I0
I1
I0
I0
tp150
I0
s(I0
I0
I1
I1
I1
I0
I1
I1
tp151
F0.414
s(I1
I0
I1
I1
I1
I1
I0
I0
tp152
I0
s(I1
I1
I1
I1
I1
I1
I0
I0
tp153
F0.7
s(I0
I1
I1
I1
I0
I0
I1
I1
tp154
F0.416
s(I0
I0
I1
I0
I1
I0
I0
I0
tp155
F0.726
s(I1
I1
I0
I0
I1
I1
I1
I0
tp156
I0
s(I0
I1
I0
I0
I0
I1
I1
I1
tp157
I0
s(I1
I1
I0
I1
I1
I1
I1
I0
tp158
F0.318
s(I0
I0
I1
I0
I1
I1
I1
I1
tp159
F0.645
s(I1
I0
I1
I1
I0
I0
I0
I1
tp160
F0.659
s(I0
I1
I0
I0
I0
I0
I0
I0
tp161
F0.773
s(I1
I0
I1
I0
I0
I0
I0
I0
tp162
F0.765
s(I0
I1
I0
I1
I0
I0
I0
I1
tp163
F0.627
s(I1
I1
I1
I1
I1
I0
I1
I1
tp164
F0.448
s(I1
I1
I1
I0
I1
I1
I0
I1
tp165
F0.73
s(I1
I0
I1
I0
I0
I1
I1
I1
tp166
F0.619
s(I0
I0
I1
I0
I0
I0
I1
I0
tp167
F0.512
s(I1
I0
I0
I1
I0
I0
I1
I1
tp168
F0.499
s(I0
I1
I0
I1
I1
I1
I0
I0
tp169
I0
s(I0
I0
I0
I1
I0
I0
I0
I0
tp170
F0.757
s(I0
I1
I0
I1
I0
I1
I1
I1
tp171
F0.538
s(I1
I0
I0
I1
I0
I1
I0
I0
tp172
I0
s(I0
I0
I0
I0
I0
I0
I0
I1
tp173
F0.628
s(I1
I0
I1
I0
I1
I0
I1
I0
tp174
F0.539
s(I0
I1
I1
I0
I1
I1
I1
I0
tp175
I0
s(I0
I1
I1
I1
I1
I1
I1
I0
tp176
I0
s(I1
I1
I1
I0
I0
I1
I0
I1
tp177
F0.794
s(I1
I1
I0
I0
I0
I0
I1
I1
tp178
F0.722
s(I0
I0
I1
I1
I0
I0
I1
I0
tp179
F0.381
s(I1
I0
I0
I1
I1
I0
I0
I1
tp180
F0.723
s(I0
I0
I0
I0
I1
I1
I0
I0
tp181
F0.649
s(I1
I1
I0
I0
I0
I1
I0
I0
tp182
F0.724
s(I0
I1
I0
I0
I1
I1
I0
I1
tp183
F0.866
s(I0
I0
I0
I0
I1
I0
I1
I1
tp184
I0
s(I1
I1
I1
I0
I1
I1
I1
I1
tp185
F0.643
s(I0
I0
I1
I1
I1
I1
I1
I1
tp186
I0
s(I1
I0
I1
I1
I1
I0
I0
I1
tp187
F0.647
s(I1
I1
I0
I0
I1
I0
I0
I1
tp188
F0.837
s(I0
I0
I1
I1
I1
I0
I0
I0
tp189
F0.736
s(I0
I0
I0
I1
I1
I1
I0
I1
tp190
F0.767
s(I1
I0
I0
I0
I1
I0
I1
I0
tp191
F0.468
s(I1
I0
I1
I1
I0
I1
I0
I0
tp192
I0
s(I0
I1
I0
I0
I0
I1
I0
I1
tp193
F0.824
s(I0
I1
I1
I0
I0
I0
I1
I1
tp194
F0.422
s(I1
I0
I1
I1
I0
I0
I1
I1
tp195
F0.409
s(I0
I1
I1
I0
I0
I1
I0
I0
tp196
I0
s(I1
I1
I1
I0
I1
I0
I0
I0
tp197
F0.735
s(I1
I0
I0
I0
I0
I1
I1
I1
tp198
F0.651
s(I1
I1
I0
I1
I1
I0
I1
I0
tp199
F0.604
s(I1
I0
I0
I0
I0
I0
I0
I0
tp200
F0.751
s(I0
I0
I1
I1
I0
I1
I1
I1
tp201
F0.517
s(I0
I0
I0
I1
I0
I1
I0
I1
tp202
F0.795
s(I0
I0
I0
I0
I0
I1
I1
I0
tp203
I0
s(I1
I0
I0
I1
I0
I0
I0
I1
tp204
F0.706
s(I0
I1
I1
I0
I1
I0
I0
I1
tp205
F0.769
s(I1
I1
I0
I1
I1
I0
I1
I1
tp206
I0
s(I1
I1
I1
I0
I0
I0
I1
I0
tp207
F0.523
s(I0
I0
I1
I0
I0
I1
I1
I0
tp208
I0
s(I0
I0
I1
I1
I0
I1
I0
I1
tp209
F0.793
s(I1
I0
I0
I1
I1
I1
I0
I0
tp210
I0
s(I1
I1
I0
I1
I0
I0
I0
I0
tp211
I0
s(I1
I1
I0
I0
I0
I0
I0
I1
tp212
F0.814
s(I0
I1
I0
I0
I1
I0
I0
I0
tp213
F0.853
s(I1
I0
I1
I0
I1
I1
I1
I0
tp214
I0
s(I1
I1
I1
I1
I1
I0
I0
I1
tp215
F0.691
s(I1
I0
I1
I1
I1
I1
I1
I0
tp216
I0
s(I0
I1
I1
I1
I1
I0
I1
I0
tp217
F0.387
s(I1
I1
I1
I1
I0
I0
I1
I0
tp218
F0.43
s(I1
I1
I0
I0
I1
I1
I0
I0
tp219
F0.77
s(I0
I0
I1
I1
I1
I1
I0
I1
tp220
F0.619
s(I1
I0
I0
I0
I1
I1
I0
I1
tp221
F0.749
s(I0
I0
I0
I1
I1
I0
I0
I0
tp222
F0.731
s(I0
I0
I0
I0
I1
I1
I1
I1
tp223
I0
s(I0
I1
I0
I0
I0
I0
I1
I0
tp224
F0.598
s(I1
I1
I0
I1
I0
I1
I1
I1
tp225
I0
s(I0
I0
I0
I1
I1
I1
I1
I1
tp226
F0.454
s(I0
I1
I1
I1
I0
I0
I0
I0
tp227
F0.667
s(I0
I0
I1
I0
I1
I0
I1
I1
tp228
F0.525
s(I0
I1
I1
I0
I0
I0
I0
I1
tp229
F0.692
s(I1
I1
I0
I1
I1
I1
I0
I1
tp230
F0.841
s(I0
I0
I1
I0
I1
I1
I0
I0
tp231
I0
s(I0
I0
I0
I1
I1
I0
I1
I1
tp232
F0.453
s(I0
I0
I0
I1
I0
I0
I1
I0
tp233
F0.604
s(I1
I0
I0
I0
I0
I1
I0
I1
tp234
F0.748
s(I1
I0
I1
I0
I0
I0
I1
I1
tp235
F0.64
s(I0
I1
I0
I1
I0
I0
I1
I0
tp236
F0.562
s(I0
I1
I1
I0
I1
I1
I0
I0
tp237
I0
s(I1
I0
I1
I0
I0
I1
I0
I0
tp238
F0.768
s(I0
I0
I1
I0
I0
I0
I0
I1
tp239
F0.719
s(I0
I1
I1
I0
I1
I0
I1
I1
tp240
F0.562
s(I0
I1
I1
I1
I0
I1
I1
I0
tp241
I0
s(I0
I0
I1
I1
I0
I0
I0
I0
tp242
F0.666
s(I1
I0
I1
I1
I0
I1
I1
I0
tp243
I0
s(I1
I1
I0
I1
I0
I1
I0
I1
tp244
F0.611
s(I1
I1
I0
I0
I0
I1
I1
I0
tp245
I0
s(I0
I0
I0
I0
I0
I0
I1
I0
tp246
F0.598
s(I1
I0
I1
I0
I1
I0
I0
I1
tp247
F0.817
s(I0
I1
I0
I1
I1
I0
I0
I0
tp248
F0.887
s(I1
I1
I0
I0
I1
I1
I1
I1
tp249
F0.609
s(I0
I1
I1
I1
I1
I1
I0
I1
tp250
F0.79
s(I0
I1
I1
I1
I1
I0
I1
I1
tp251
F0.47
s(I1
I1
I1
I0
I0
I1
I1
I0
tp252
I0
s(I1
I1
I1
I1
I0
I1
I0
I1
tp253
F0.662
s(I0
I0
I0
I1
I0
I1
I1
I1
tp254
F0.462
s(I0
I0
I1
I1
I1
I0
I1
I0
tp255
F0.41
s(I0
I1
I1
I0
I1
I1
I1
I1
tp256
I0
s.